target datalayout = "e-m:e-p270:32:32-p271:32:32-p272:64:64-i64:64-i128:128-f80:128-n8:16:32:64-S128"
target triple = "x86_64-pc-linux-gnu"

%struct.aofInfo = type { ptr, i64, i32, i64, i64 }
%struct.aofManifest = type { ptr, ptr, ptr, i64, i64, i32 }

@.str.1 = private unnamed_addr constant [6 x i8] c"aof.c\00", align 1
@.str.2 = private unnamed_addr constant [13 x i8] c"orig != NULL\00", align 1
@.str.33 = private unnamed_addr constant [26 x i8] c"am->incr_aof_list != NULL\00", align 1
@.str.34 = private unnamed_addr constant [29 x i8] c"am->history_aof_list != NULL\00", align 1

; Function Attrs: nounwind uwtable
define dso_local ptr @aofInfoCreate() #0 {
  %1 = alloca ptr, align 8
  call void @llvm.lifetime.start.p0(i64 8, ptr %1) #12
  %2 = call noalias ptr @zcalloc(i64 noundef 40) #13
  store ptr %2, ptr %1, align 8, !tbaa !5
  %3 = load ptr, ptr %1, align 8, !tbaa !5
  %4 = getelementptr inbounds nuw %struct.aofInfo, ptr %3, i32 0, i32 3
  store i64 -1, ptr %4, align 8, !tbaa !9
  %5 = load ptr, ptr %1, align 8, !tbaa !5
  %6 = getelementptr inbounds nuw %struct.aofInfo, ptr %5, i32 0, i32 4
  store i64 -1, ptr %6, align 8, !tbaa !14
  %7 = load ptr, ptr %1, align 8, !tbaa !5
  call void @llvm.lifetime.end.p0(i64 8, ptr %1) #12
  ret ptr %7
}

; Function Attrs: nounwind uwtable
define dso_local ptr @aofInfoDup(ptr noundef %0) #0 {
  %2 = alloca ptr, align 8
  %3 = alloca ptr, align 8
  store ptr %0, ptr %2, align 8, !tbaa !5
  %4 = load ptr, ptr %2, align 8, !tbaa !5
  %5 = icmp ne ptr %4, null
  %6 = xor i1 %5, true
  %7 = xor i1 %6, true
  %8 = zext i1 %7 to i32
  %9 = sext i32 %8 to i64
  %10 = call i64 @llvm.expect.i64(i64 %9, i64 1)
  %11 = icmp ne i64 %10, 0
  br i1 %11, label %12, label %13

12:                                               ; preds = %1
  br label %15

13:                                               ; preds = %1
  call void @_serverAssert(ptr noundef @.str.2, ptr noundef @.str.1, i32 noundef 103)
  call void @abort() #14
  unreachable

14:                                               ; No predecessors!
  br label %15

15:                                               ; preds = %14, %12
  call void @llvm.lifetime.start.p0(i64 8, ptr %3) #12
  %16 = call ptr @aofInfoCreate()
  store ptr %16, ptr %3, align 8, !tbaa !5
  %17 = load ptr, ptr %2, align 8, !tbaa !5
  %18 = getelementptr inbounds nuw %struct.aofInfo, ptr %17, i32 0, i32 0
  %19 = load ptr, ptr %18, align 8, !tbaa !15
  %20 = call ptr @sdsdup(ptr noundef %19)
  %21 = load ptr, ptr %3, align 8, !tbaa !5
  %22 = getelementptr inbounds nuw %struct.aofInfo, ptr %21, i32 0, i32 0
  store ptr %20, ptr %22, align 8, !tbaa !15
  %23 = load ptr, ptr %2, align 8, !tbaa !5
  %24 = getelementptr inbounds nuw %struct.aofInfo, ptr %23, i32 0, i32 1
  %25 = load i64, ptr %24, align 8, !tbaa !16
  %26 = load ptr, ptr %3, align 8, !tbaa !5
  %27 = getelementptr inbounds nuw %struct.aofInfo, ptr %26, i32 0, i32 1
  store i64 %25, ptr %27, align 8, !tbaa !16
  %28 = load ptr, ptr %2, align 8, !tbaa !5
  %29 = getelementptr inbounds nuw %struct.aofInfo, ptr %28, i32 0, i32 2
  %30 = load i32, ptr %29, align 8, !tbaa !17
  %31 = load ptr, ptr %3, align 8, !tbaa !5
  %32 = getelementptr inbounds nuw %struct.aofInfo, ptr %31, i32 0, i32 2
  store i32 %30, ptr %32, align 8, !tbaa !17
  %33 = load ptr, ptr %2, align 8, !tbaa !5
  %34 = getelementptr inbounds nuw %struct.aofInfo, ptr %33, i32 0, i32 3
  %35 = load i64, ptr %34, align 8, !tbaa !9
  %36 = load ptr, ptr %3, align 8, !tbaa !5
  %37 = getelementptr inbounds nuw %struct.aofInfo, ptr %36, i32 0, i32 3
  store i64 %35, ptr %37, align 8, !tbaa !9
  %38 = load ptr, ptr %2, align 8, !tbaa !5
  %39 = getelementptr inbounds nuw %struct.aofInfo, ptr %38, i32 0, i32 4
  %40 = load i64, ptr %39, align 8, !tbaa !14
  %41 = load ptr, ptr %3, align 8, !tbaa !5
  %42 = getelementptr inbounds nuw %struct.aofInfo, ptr %41, i32 0, i32 4
  store i64 %40, ptr %42, align 8, !tbaa !14
  %43 = load ptr, ptr %3, align 8, !tbaa !5
  call void @llvm.lifetime.end.p0(i64 8, ptr %3) #12
  ret ptr %43
}

; Function Attrs: nounwind uwtable
define dso_local ptr @aofManifestDup(ptr noundef %0) #0 {
  %2 = alloca ptr, align 8
  %3 = alloca ptr, align 8
  store ptr %0, ptr %2, align 8, !tbaa !5
  %4 = load ptr, ptr %2, align 8, !tbaa !5
  %5 = icmp ne ptr %4, null
  %6 = xor i1 %5, true
  %7 = xor i1 %6, true
  %8 = zext i1 %7 to i32
  %9 = sext i32 %8 to i64
  %10 = call i64 @llvm.expect.i64(i64 %9, i64 1)
  %11 = icmp ne i64 %10, 0
  br i1 %11, label %12, label %13

12:                                               ; preds = %1
  br label %15

13:                                               ; preds = %1
  call void @_serverAssert(ptr noundef @.str.2, ptr noundef @.str.1, i32 noundef 400)
  call void @abort() #14
  unreachable

14:                                               ; No predecessors!
  br label %15

15:                                               ; preds = %14, %12
  call void @llvm.lifetime.start.p0(i64 8, ptr %3) #12
  %16 = call noalias ptr @zcalloc(i64 noundef 48) #13
  store ptr %16, ptr %3, align 8, !tbaa !5
  %17 = load ptr, ptr %2, align 8, !tbaa !5
  %18 = getelementptr inbounds nuw %struct.aofManifest, ptr %17, i32 0, i32 3
  %19 = load i64, ptr %18, align 8, !tbaa !73
  %20 = load ptr, ptr %3, align 8, !tbaa !5
  %21 = getelementptr inbounds nuw %struct.aofManifest, ptr %20, i32 0, i32 3
  store i64 %19, ptr %21, align 8, !tbaa !73
  %22 = load ptr, ptr %2, align 8, !tbaa !5
  %23 = getelementptr inbounds nuw %struct.aofManifest, ptr %22, i32 0, i32 4
  %24 = load i64, ptr %23, align 8, !tbaa !74
  %25 = load ptr, ptr %3, align 8, !tbaa !5
  %26 = getelementptr inbounds nuw %struct.aofManifest, ptr %25, i32 0, i32 4
  store i64 %24, ptr %26, align 8, !tbaa !74
  %27 = load ptr, ptr %2, align 8, !tbaa !5
  %28 = getelementptr inbounds nuw %struct.aofManifest, ptr %27, i32 0, i32 5
  %29 = load i32, ptr %28, align 8, !tbaa !75
  %30 = load ptr, ptr %3, align 8, !tbaa !5
  %31 = getelementptr inbounds nuw %struct.aofManifest, ptr %30, i32 0, i32 5
  store i32 %29, ptr %31, align 8, !tbaa !75
  %32 = load ptr, ptr %2, align 8, !tbaa !5
  %33 = getelementptr inbounds nuw %struct.aofManifest, ptr %32, i32 0, i32 0
  %34 = load ptr, ptr %33, align 8, !tbaa !33
  %35 = icmp ne ptr %34, null
  br i1 %35, label %36, label %43

36:                                               ; preds = %15
  %37 = load ptr, ptr %2, align 8, !tbaa !5
  %38 = getelementptr inbounds nuw %struct.aofManifest, ptr %37, i32 0, i32 0
  %39 = load ptr, ptr %38, align 8, !tbaa !33
  %40 = call ptr @aofInfoDup(ptr noundef %39)
  %41 = load ptr, ptr %3, align 8, !tbaa !5
  %42 = getelementptr inbounds nuw %struct.aofManifest, ptr %41, i32 0, i32 0
  store ptr %40, ptr %42, align 8, !tbaa !33
  br label %43

43:                                               ; preds = %36, %15
  %44 = load ptr, ptr %2, align 8, !tbaa !5
  %45 = getelementptr inbounds nuw %struct.aofManifest, ptr %44, i32 0, i32 1
  %46 = load ptr, ptr %45, align 8, !tbaa !25
  %47 = call ptr @listDup(ptr noundef %46)
  %48 = load ptr, ptr %3, align 8, !tbaa !5
  %49 = getelementptr inbounds nuw %struct.aofManifest, ptr %48, i32 0, i32 1
  store ptr %47, ptr %49, align 8, !tbaa !25
  %50 = load ptr, ptr %2, align 8, !tbaa !5
  %51 = getelementptr inbounds nuw %struct.aofManifest, ptr %50, i32 0, i32 2
  %52 = load ptr, ptr %51, align 8, !tbaa !28
  %53 = call ptr @listDup(ptr noundef %52)
  %54 = load ptr, ptr %3, align 8, !tbaa !5
  %55 = getelementptr inbounds nuw %struct.aofManifest, ptr %54, i32 0, i32 2
  store ptr %53, ptr %55, align 8, !tbaa !28
  %56 = load ptr, ptr %3, align 8, !tbaa !5
  %57 = getelementptr inbounds nuw %struct.aofManifest, ptr %56, i32 0, i32 1
  %58 = load ptr, ptr %57, align 8, !tbaa !25
  %59 = icmp ne ptr %58, null
  %60 = xor i1 %59, true
  %61 = xor i1 %60, true
  %62 = zext i1 %61 to i32
  %63 = sext i32 %62 to i64
  %64 = call i64 @llvm.expect.i64(i64 %63, i64 1)
  %65 = icmp ne i64 %64, 0
  br i1 %65, label %66, label %67

66:                                               ; preds = %43
  br label %69

67:                                               ; preds = %43
  call void @_serverAssert(ptr noundef @.str.33, ptr noundef @.str.1, i32 noundef 413)
  call void @abort() #14
  unreachable

68:                                               ; No predecessors!
  br label %69

69:                                               ; preds = %68, %66
  %70 = load ptr, ptr %3, align 8, !tbaa !5
  %71 = getelementptr inbounds nuw %struct.aofManifest, ptr %70, i32 0, i32 2
  %72 = load ptr, ptr %71, align 8, !tbaa !28
  %73 = icmp ne ptr %72, null
  %74 = xor i1 %73, true
  %75 = xor i1 %74, true
  %76 = zext i1 %75 to i32
  %77 = sext i32 %76 to i64
  %78 = call i64 @llvm.expect.i64(i64 %77, i64 1)
  %79 = icmp ne i64 %78, 0
  br i1 %79, label %80, label %81

80:                                               ; preds = %69
  br label %83

81:                                               ; preds = %69
  call void @_serverAssert(ptr noundef @.str.34, ptr noundef @.str.1, i32 noundef 414)
  call void @abort() #14
  unreachable

82:                                               ; No predecessors!
  br label %83

83:                                               ; preds = %82, %80
  %84 = load ptr, ptr %3, align 8, !tbaa !5
  call void @llvm.lifetime.end.p0(i64 8, ptr %3) #12
  ret ptr %84
}