; Function Attrs: nounwind uwtable
define dso_local noalias noundef ptr @aofManifestDup(ptr noundef readonly captures(address_is_null) %0) local_unnamed_addr #0 {
  %.not = icmp eq ptr %0, null
  br i1 %.not, label %2, label %3, !prof !5

2:                                                ; preds = %1
  tail call void @_serverAssert(ptr noundef nonnull @.str.2, ptr noundef nonnull @.str.1, i32 noundef 400) #20
  tail call void @abort() #21
  unreachable

3:                                                ; preds = %1
  %4 = tail call noalias dereferenceable_or_null(48) ptr @zcalloc(i64 noundef 48) #19
  %5 = getelementptr inbounds nuw i8, ptr %0, i64 24
  %6 = load i64, ptr %5, align 8, !tbaa !68
  %7 = getelementptr inbounds nuw i8, ptr %4, i64 24
  store i64 %6, ptr %7, align 8, !tbaa !68
  %8 = getelementptr inbounds nuw i8, ptr %0, i64 32
  %9 = load i64, ptr %8, align 8, !tbaa !69
  %10 = getelementptr inbounds nuw i8, ptr %4, i64 32
  store i64 %9, ptr %10, align 8, !tbaa !69
  %11 = getelementptr inbounds nuw i8, ptr %0, i64 40
  %12 = load i32, ptr %11, align 8, !tbaa !70
  %13 = getelementptr inbounds nuw i8, ptr %4, i64 40
  store i32 %12, ptr %13, align 8, !tbaa !70
  %14 = load ptr, ptr %0, align 8, !tbaa !32
  %.not18 = icmp eq ptr %14, null
  br i1 %.not18, label %30, label %aofInfoDup.exit

aofInfoDup.exit:                                  ; preds = %3
  %15 = tail call noalias noundef dereferenceable_or_null(40) ptr @zcalloc(i64 noundef 40) #19
  %16 = getelementptr inbounds nuw i8, ptr %15, i64 24
  %17 = load ptr, ptr %14, align 8, !tbaa !6
  %18 = tail call ptr @sdsdup(ptr noundef %17) #20
  store ptr %18, ptr %15, align 8, !tbaa !6
  %19 = getelementptr inbounds nuw i8, ptr %14, i64 8
  %20 = load i64, ptr %19, align 8, !tbaa !14
  %21 = getelementptr inbounds nuw i8, ptr %15, i64 8
  store i64 %20, ptr %21, align 8, !tbaa !14
  %22 = getelementptr inbounds nuw i8, ptr %14, i64 16
  %23 = load i32, ptr %22, align 8, !tbaa !15
  %24 = getelementptr inbounds nuw i8, ptr %15, i64 16
  store i32 %23, ptr %24, align 8, !tbaa !15
  %25 = getelementptr inbounds nuw i8, ptr %14, i64 24
  %26 = load i64, ptr %25, align 8, !tbaa !16
  store i64 %26, ptr %16, align 8, !tbaa !16
  %27 = getelementptr inbounds nuw i8, ptr %14, i64 32
  %28 = load i64, ptr %27, align 8, !tbaa !17
  %29 = getelementptr inbounds nuw i8, ptr %15, i64 32
  store i64 %28, ptr %29, align 8, !tbaa !17
  store ptr %15, ptr %4, align 8, !tbaa !32
  br label %30

30:                                               ; preds = %aofInfoDup.exit, %3
  %31 = getelementptr inbounds nuw i8, ptr %0, i64 8
  %32 = load ptr, ptr %31, align 8, !tbaa !24
  %33 = tail call ptr @listDup(ptr noundef %32) #20
  %34 = getelementptr inbounds nuw i8, ptr %4, i64 8
  store ptr %33, ptr %34, align 8, !tbaa !24
  %35 = getelementptr inbounds nuw i8, ptr %0, i64 16
  %36 = load ptr, ptr %35, align 8, !tbaa !27
  %37 = tail call ptr @listDup(ptr noundef %36) #20
  %38 = getelementptr inbounds nuw i8, ptr %4, i64 16
  store ptr %37, ptr %38, align 8, !tbaa !27
  %.not19 = icmp eq ptr %33, null
  br i1 %.not19, label %39, label %40, !prof !5

39:                                               ; preds = %30
  tail call void @_serverAssert(ptr noundef nonnull @.str.33, ptr noundef nonnull @.str.1, i32 noundef 413) #20
  tail call void @abort() #21
  unreachable

40:                                               ; preds = %30
  %.not20 = icmp eq ptr %37, null
  br i1 %.not20, label %41, label %42, !prof !5

41:                                               ; preds = %40
  tail call void @_serverAssert(ptr noundef nonnull @.str.34, ptr noundef nonnull @.str.1, i32 noundef 414) #20
  tail call void @abort() #21
  unreachable

42:                                               ; preds = %40
  ret ptr %4
}